; Function Attrs: nounwind uwtable
define i32 @Gia_ManCountTents(ptr noundef %0) local_unnamed_addr #0 {
  tail call void @Gia_ManIncrementTravId(ptr noundef %0) #23
  %2 = getelementptr i8, ptr %0, i64 176
  %.val = load i32, ptr %2, align 8
  %3 = getelementptr i8, ptr %0, i64 616
  %.val31 = load ptr, ptr %3, align 8
  store i32 %.val, ptr %.val31, align 4
  %4 = tail call noalias dereferenceable_or_null(16) ptr @malloc(i64 noundef 16) #22
  %5 = getelementptr inbounds nuw i8, ptr %4, i64 4
  store i32 0, ptr %5, align 4
  store i32 100, ptr %4, align 8
  %6 = tail call noalias dereferenceable_or_null(400) ptr @malloc(i64 noundef 400) #22
  %7 = getelementptr inbounds nuw i8, ptr %4, i64 8
  store ptr %6, ptr %7, align 8
  %8 = getelementptr i8, ptr %0, i64 32
  %9 = getelementptr i8, ptr %0, i64 16
  %10 = getelementptr i8, ptr %0, i64 72
  %.val3440 = load i32, ptr %9, align 8
  %.val3541 = load ptr, ptr %10, align 8
  %11 = getelementptr i8, ptr %.val3541, i64 4
  %.val35.val42 = load i32, ptr %11, align 4
  %12 = icmp sgt i32 %.val35.val42, %.val3440
  br i1 %12, label %.lr.ph, label %._crit_edge

.lr.ph:                                           ; preds = %1, %Vec_IntPush.exit
  %indvars.iv = phi i64 [ %indvars.iv.next, %Vec_IntPush.exit ], [ 0, %1 ]
  %.val3544 = phi ptr [ %.val35, %Vec_IntPush.exit ], [ %.val3541, %1 ]
  %.val37 = load ptr, ptr %8, align 8
  %.not = icmp eq ptr %.val37, null
  %.val3347.pre.pre56 = load i32, ptr %5, align 4
  br i1 %.not, label %.critedge, label %13

13:                                               ; preds = %.lr.ph
  %14 = getelementptr i8, ptr %.val3544, i64 8
  %.val38.val = load ptr, ptr %14, align 8
  %15 = getelementptr inbounds nuw i32, ptr %.val38.val, i64 %indvars.iv
  %16 = load i32, ptr %15, align 4
  %17 = sext i32 %16 to i64
  %18 = getelementptr inbounds %struct.Gia_Obj_t_, ptr %.val37, i64 %17
  %.val.i = load i64, ptr %18, align 4
  %19 = trunc i64 %.val.i to i32
  %20 = and i32 %19, 536870911
  %21 = sub nsw i32 %16, %20
  %22 = load i32, ptr %4, align 8
  %23 = icmp eq i32 %.val3347.pre.pre56, %22
  br i1 %23, label %24, label %.Vec_IntGrow.exit10_crit_edge.i

.Vec_IntGrow.exit10_crit_edge.i:                  ; preds = %13
  %.pre.i = load ptr, ptr %7, align 8
  br label %Vec_IntPush.exit

24:                                               ; preds = %13
  %25 = icmp slt i32 %.val3347.pre.pre56, 16
  br i1 %25, label %26, label %33

26:                                               ; preds = %24
  %27 = load ptr, ptr %7, align 8
  %.not9.i.i = icmp eq ptr %27, null
  br i1 %.not9.i.i, label %30, label %28

28:                                               ; preds = %26
  %29 = tail call dereferenceable_or_null(64) ptr @realloc(ptr noundef nonnull %27, i64 noundef 64) #21
  br label %Vec_IntGrow.exit.i

30:                                               ; preds = %26
  %31 = tail call noalias dereferenceable_or_null(64) ptr @malloc(i64 noundef 64) #22
  br label %Vec_IntGrow.exit.i

Vec_IntGrow.exit.i:                               ; preds = %30, %28
  %32 = phi ptr [ %29, %28 ], [ %31, %30 ]
  store ptr %32, ptr %7, align 8
  store i32 16, ptr %4, align 8
  br label %Vec_IntPush.exit

33:                                               ; preds = %24
  %34 = shl nuw nsw i32 %.val3347.pre.pre56, 1
  %35 = load ptr, ptr %7, align 8
  %.not9.i9.i = icmp eq ptr %35, null
  %36 = zext nneg i32 %34 to i64
  %37 = shl nuw nsw i64 %36, 2
  br i1 %.not9.i9.i, label %40, label %38

38:                                               ; preds = %33
  %39 = tail call ptr @realloc(ptr noundef nonnull %35, i64 noundef %37) #21
  br label %42

40:                                               ; preds = %33
  %41 = tail call noalias ptr @malloc(i64 noundef %37) #22
  br label %42

42:                                               ; preds = %40, %38
  %43 = phi ptr [ %39, %38 ], [ %41, %40 ]
  store ptr %43, ptr %7, align 8
  store i32 %34, ptr %4, align 8
  br label %Vec_IntPush.exit

Vec_IntPush.exit:                                 ; preds = %.Vec_IntGrow.exit10_crit_edge.i, %Vec_IntGrow.exit.i, %42
  %44 = phi ptr [ %.pre.i, %.Vec_IntGrow.exit10_crit_edge.i ], [ %43, %42 ], [ %32, %Vec_IntGrow.exit.i ]
  %45 = add nsw i32 %.val3347.pre.pre56, 1
  store i32 %45, ptr %5, align 4
  %46 = sext i32 %.val3347.pre.pre56 to i64
  %47 = getelementptr inbounds i32, ptr %44, i64 %46
  store i32 %21, ptr %47, align 4
  %indvars.iv.next = add nuw nsw i64 %indvars.iv, 1
  %.val34 = load i32, ptr %9, align 8
  %.val35 = load ptr, ptr %10, align 8
  %48 = getelementptr i8, ptr %.val35, i64 4
  %.val35.val = load i32, ptr %48, align 4
  %49 = sub nsw i32 %.val35.val, %.val34
  %50 = sext i32 %49 to i64
  %51 = icmp slt i64 %indvars.iv.next, %50
  br i1 %51, label %.lr.ph, label %Vec_IntPush.exit..critedge.loopexit_crit_edge, !llvm.loop !17

Vec_IntPush.exit..critedge.loopexit_crit_edge:    ; preds = %Vec_IntPush.exit
  %.val3347.pre.pre = load i32, ptr %5, align 4
  br label %.critedge

.critedge:                                        ; preds = %.lr.ph, %Vec_IntPush.exit..critedge.loopexit_crit_edge
  %.val3347 = phi i32 [ %.val3347.pre.pre, %Vec_IntPush.exit..critedge.loopexit_crit_edge ], [ %.val3347.pre.pre56, %.lr.ph ]
  %52 = icmp sgt i32 %.val3347, 0
  br i1 %52, label %.preheader, label %._crit_edge

.preheader:                                       ; preds = %.critedge, %.critedge2
  %.val3350 = phi i32 [ %.val33, %.critedge2 ], [ %.val3347, %.critedge ]
  %.049 = phi i32 [ %59, %.critedge2 ], [ 0, %.critedge ]
  %.02748 = phi i32 [ %.val3350, %.critedge2 ], [ 0, %.critedge ]
  %53 = sext i32 %.02748 to i64
  %54 = sext i32 %.val3350 to i64
  br label %55

55:                                               ; preds = %.preheader, %55
  %indvars.iv52 = phi i64 [ %53, %.preheader ], [ %indvars.iv.next53, %55 ]
  %.val36 = load ptr, ptr %7, align 8
  %56 = getelementptr inbounds i32, ptr %.val36, i64 %indvars.iv52
  %57 = load i32, ptr %56, align 4
  tail call void @Gia_ManCountTents_rec(ptr noundef %0, i32 noundef %57, ptr noundef nonnull %4)
  %indvars.iv.next53 = add nsw i64 %indvars.iv52, 1
  %58 = icmp slt i64 %indvars.iv.next53, %54
  br i1 %58, label %55, label %.critedge2, !llvm.loop !18

.critedge2:                                       ; preds = %55
  %59 = add nuw nsw i32 %.049, 1
  %.val33 = load i32, ptr %5, align 4
  %60 = icmp slt i32 %.val3350, %.val33
  br i1 %60, label %.preheader, label %._crit_edge, !llvm.loop !19

._crit_edge:                                      ; preds = %.critedge2, %1, %.critedge
  %.0.lcssa = phi i32 [ 0, %.critedge ], [ 0, %1 ], [ %59, %.critedge2 ]
  %61 = load ptr, ptr %7, align 8
  %.not.i = icmp eq ptr %61, null
  br i1 %.not.i, label %Vec_IntFree.exit, label %62

62:                                               ; preds = %._crit_edge
  tail call void @free(ptr noundef nonnull %61) #23
  br label %Vec_IntFree.exit

Vec_IntFree.exit:                                 ; preds = %._crit_edge, %62
  tail call void @free(ptr noundef nonnull %4) #23
  ret i32 %.0.lcssa
}